target datalayout = "e-m:e-p270:32:32-p271:32:32-p272:64:64-i64:64-i128:128-f80:128-n8:16:32:64-S128"
target triple = "x86_64-pc-linux-gnu"

%struct.call_foreach_t = type { ptr, ptr, i32, i8 }
%struct.pref_module = type { ptr, ptr, ptr, ptr, ptr, ptr, ptr, ptr, i32, i32, i8, i8, i32 }

; Function Attrs: null_pointer_is_valid sspstrong uwtable
define internal zeroext i1 @call_foreach_cb(ptr noundef %0, ptr noundef %1, ptr noundef %2) #1 {
  %4 = alloca ptr, align 8
  %5 = alloca ptr, align 8
  %6 = alloca ptr, align 8
  %7 = alloca ptr, align 8
  %8 = alloca ptr, align 8
  store ptr %0, ptr %4, align 8
  store ptr %1, ptr %5, align 8
  store ptr %2, ptr %6, align 8
  call void @llvm.lifetime.start.p0(i64 8, ptr %7) #17
  %9 = load ptr, ptr %5, align 8
  store ptr %9, ptr %7, align 8
  call void @llvm.lifetime.start.p0(i64 8, ptr %8) #17
  %10 = load ptr, ptr %6, align 8
  store ptr %10, ptr %8, align 8
  %11 = load ptr, ptr %8, align 8
  %12 = getelementptr inbounds nuw %struct.call_foreach_t, ptr %11, i32 0, i32 3
  %13 = load i8, ptr %12, align 4, !range !6, !noundef !7
  %14 = trunc i8 %13 to i1
  br i1 %14, label %15, label %20

15:                                               ; preds = %3
  %16 = load ptr, ptr %7, align 8
  %17 = getelementptr inbounds nuw %struct.pref_module, ptr %16, i32 0, i32 10
  %18 = load i8, ptr %17, align 8, !range !6, !noundef !7
  %19 = trunc i8 %18 to i1
  br i1 %19, label %31, label %20

20:                                               ; preds = %15, %3
  %21 = load ptr, ptr %8, align 8
  %22 = getelementptr inbounds nuw %struct.call_foreach_t, ptr %21, i32 0, i32 0
  %23 = load ptr, ptr %22, align 8
  %24 = load ptr, ptr %7, align 8
  %25 = load ptr, ptr %8, align 8
  %26 = getelementptr inbounds nuw %struct.call_foreach_t, ptr %25, i32 0, i32 1
  %27 = load ptr, ptr %26, align 8
  %28 = call i32 %23(ptr noundef %24, ptr noundef %27)
  %29 = load ptr, ptr %8, align 8
  %30 = getelementptr inbounds nuw %struct.call_foreach_t, ptr %29, i32 0, i32 2
  store i32 %28, ptr %30, align 8
  br label %31

31:                                               ; preds = %20, %15
  %32 = load ptr, ptr %8, align 8
  %33 = getelementptr inbounds nuw %struct.call_foreach_t, ptr %32, i32 0, i32 2
  %34 = load i32, ptr %33, align 8
  %35 = icmp ne i32 %34, 0
  call void @llvm.lifetime.end.p0(i64 8, ptr %8) #17
  call void @llvm.lifetime.end.p0(i64 8, ptr %7) #17
  ret i1 %35
}