; Function Attrs: null_pointer_is_valid sspstrong uwtable
define internal zeroext i1 @call_foreach_cb(ptr readnone captures(none) %0, ptr noundef %1, ptr noundef captures(none) %2) #1 {
  %4 = getelementptr inbounds nuw i8, ptr %2, i64 20
  %5 = load i8, ptr %4, align 4, !range !6, !noundef !7
  %6 = trunc nuw i8 %5 to i1
  br i1 %6, label %7, label %11

7:                                                ; preds = %3
  %8 = getelementptr inbounds nuw i8, ptr %1, i64 72
  %9 = load i8, ptr %8, align 8, !range !6, !noundef !7
  %10 = trunc nuw i8 %9 to i1
  br i1 %10, label %._crit_edge, label %11

._crit_edge:                                      ; preds = %7
  %.phi.trans.insert = getelementptr inbounds nuw i8, ptr %2, i64 16
  %.pre = load i32, ptr %.phi.trans.insert, align 8
  br label %17

11:                                               ; preds = %7, %3
  %12 = load ptr, ptr %2, align 8
  %13 = getelementptr inbounds nuw i8, ptr %2, i64 8
  %14 = load ptr, ptr %13, align 8
  %15 = tail call i32 %12(ptr noundef %1, ptr noundef %14)
  %16 = getelementptr inbounds nuw i8, ptr %2, i64 16
  store i32 %15, ptr %16, align 8
  br label %17

17:                                               ; preds = %._crit_edge, %11
  %18 = phi i32 [ %.pre, %._crit_edge ], [ %15, %11 ]
  %19 = icmp ne i32 %18, 0
  ret i1 %19
}